(lp0
ccopy_reg
_reconstructor
p1
(cforecastio.models
ForecastioDataPoint
p2
c__builtin__
object
p3
Ntp4
Rp5
(dp6
S'utime'
p7
I1416031200
sS'sunriseTime'
p8
cdatetime
datetime
p9
(S'\x07\xde\x0b\x0f\x06,\x11\x00\x00\x00'
p10
tp11
Rp12
sS'd'
p13
(dp14
VapparentTemperatureMinTime
p15
I1416052800
sVprecipType
p16
Vsnow
p17
sVcloudCover
p18
F0.76
sVprecipIntensityMaxTime
p19
I1416099600
sVtemperatureMin
p20
F23.07
sVsummary
p21
VSnow in the evening.
p22
sVdewPoint
p23
F20.68
sVapparentTemperatureMax
p24
F34.24
sVtemperatureMax
p25
F38.19
sVtemperatureMaxTime
p26
I1416078000
sVwindBearing
p27
I139
sVmoonPhase
p28
F0.78
sVprecipAccumulation
p29
F0.392
sVvisibility
p30
F7.44
sVsunsetTime
p31
I1416091756
sVpressure
p32
F1027.67
sVprecipProbability
p33
I1
sVapparentTemperatureMin
p34
F23.07
sVprecipIntensityMax
p35
F0.0218
sVicon
p36
Vsnow
p37
sVapparentTemperatureMaxTime
p38
I1416078000
sVhumidity
p39
F0.69
sVozone
p40
F304.04
sVwindSpeed
p41
F2.93
sVtime
p42
I1416031200
sVprecipIntensity
p43
F0.002
sVsunriseTime
p44
I1416055457
sVtemperatureMinTime
p45
I1416052800
ssS'sunsetTime'
p46
g9
(S'\x07\xde\x0b\x0f\x101\x10\x00\x00\x00'
p47
tp48
Rp49
sS'time'
p50
g9
(S'\x07\xde\x0b\x0f\x00\x00\x00\x00\x00\x00'
p51
tp52
Rp53
sbag1
(g2
g3
Ntp54
Rp55
(dp56
g7
I1416117600
sg8
g9
(S'\x07\xde\x0b\x10\x06-\x18\x00\x00\x00'
p57
tp58
Rp59
sg13
(dp60
VapparentTemperatureMinTime
p61
I1416200400
sVprecipType
p62
Vsnow
p63
sVcloudCover
p64
F0.98
sVprecipIntensityMaxTime
p65
I1416171600
sVtemperatureMin
p66
F28.82
sVsummary
p67
VSnow throughout the day.
p68
sVdewPoint
p69
F28.91
sVapparentTemperatureMax
p70
F31.28
sVtemperatureMax
p71
F34.99
sVtemperatureMaxTime
p72
I1416164400
sVwindBearing
p73
I258
sVmoonPhase
p74
F0.81
sVprecipAccumulation
p75
F2.267
sVvisibility
p76
F4.87
sVsunsetTime
p77
I1416178113
sVpressure
p78
F1020.57
sVprecipProbability
p79
F0.91
sVapparentTemperatureMin
p80
F19.88
sVprecipIntensityMax
p81
F0.0477
sVicon
p82
Vsnow
p83
sVapparentTemperatureMaxTime
p84
I1416164400
sVhumidity
p85
F0.9
sVozone
p86
F301.06
sVwindSpeed
p87
F2.54
sVtime
p88
I1416117600
sVprecipIntensity
p89
F0.0122
sVsunriseTime
p90
I1416141924
sVtemperatureMinTime
p91
I1416135600
ssg46
g9
(S'\x07\xde\x0b\x10\x100!\x00\x00\x00'
p92
tp93
Rp94
sg50
g9
(S'\x07\xde\x0b\x10\x00\x00\x00\x00\x00\x00'
p95
tp96
Rp97
sbag1
(g2
g3
Ntp98
Rp99
(dp100
g7
I1416204000
sg8
g9
(S'\x07\xde\x0b\x11\x06.\x1e\x00\x00\x00'
p101
tp102
Rp103
sg13
(dp104
VapparentTemperatureMinTime
p105
I1416286800
sVprecipType
p106
Vsnow
p107
sVcloudCover
p108
F0.8
sVprecipIntensityMaxTime
p109
I1416204000
sVtemperatureMin
p110
F17.54
sVsummary
p111
VMostly cloudy throughout the day.
p112
sVdewPoint
p113
F15.13
sVapparentTemperatureMax
p114
F17.4
sVtemperatureMax
p115
F27.52
sVtemperatureMaxTime
p116
I1416204000
sVwindBearing
p117
I287
sVmoonPhase
p118
F0.84
sVprecipAccumulation
p119
F0.402
sVvisibility
p120
F8.76
sVsunsetTime
p121
I1416264471
sVpressure
p122
F1020.59
sVprecipProbability
p123
F0.42
sVapparentTemperatureMin
p124
F3.02
sVprecipIntensityMax
p125
F0.0114
sVicon
p126
Vpartly-cloudy-day
p127
sVapparentTemperatureMaxTime
p128
I1416204000
sVhumidity
p129
F0.73
sVozone
p130
F362.62
sVwindSpeed
p131
F15.25
sVtime
p132
I1416204000
sVprecipIntensity
p133
F0.0014
sVsunriseTime
p134
I1416228390
sVtemperatureMinTime
p135
I1416286800
ssg46
g9
(S'\x07\xde\x0b\x11\x10/3\x00\x00\x00'
p136
tp137
Rp138
sg50
g9
(S'\x07\xde\x0b\x11\x00\x00\x00\x00\x00\x00'
p139
tp140
Rp141
sbag1
(g2
g3
Ntp142
Rp143
(dp144
g7
I1416290400
sg8
g9
(S'\x07\xde\x0b\x12\x06/$\x00\x00\x00'
p145
tp146
Rp147
sg13
(dp148
VapparentTemperatureMinTime
p149
I1416308400
sVcloudCover
p150
F0.15
sVtemperatureMin
p151
F12.98
sVsummary
p152
VPartly cloudy starting in the evening.
p153
sVdewPoint
p154
F10.81
sVapparentTemperatureMax
p155
F13.77
sVtemperatureMax
p156
F25.31
sVtemperatureMaxTime
p157
I1416344400
sVwindBearing
p158
I254
sVmoonPhase
p159
F0.87
sVvisibility
p160
I10
sVsunsetTime
p161
I1416350831
sVpressure
p162
F1025.53
sVprecipProbability
p163
I0
sVapparentTemperatureMin
p164
F-1.66
sVprecipIntensityMax
p165
I0
sVicon
p166
Vpartly-cloudy-night
p167
sVapparentTemperatureMaxTime
p168
I1416344400
sVhumidity
p169
F0.71
sVozone
p170
F336.6
sVwindSpeed
p171
F11.31
sVtime
p172
I1416290400
sVprecipIntensity
p173
I0
sVsunriseTime
p174
I1416314856
sVtemperatureMinTime
p175
I1416312000
ssg46
g9
(S'\x07\xde\x0b\x12\x10/\x0b\x00\x00\x00'
p176
tp177
Rp178
sg50
g9
(S'\x07\xde\x0b\x12\x00\x00\x00\x00\x00\x00'
p179
tp180
Rp181
sbag1
(g2
g3
Ntp182
Rp183
(dp184
g7
I1416376800
sg8
g9
(S'\x07\xde\x0b\x13\x060*\x00\x00\x00'
p185
tp186
Rp187
sg13
(dp188
VapparentTemperatureMinTime
p189
I1416376800
sVcloudCover
p190
F0.64
sVtemperatureMin
p191
F20.93
sVsummary
p192
VMostly cloudy until evening.
p193
sVdewPoint
p194
F25.19
sVapparentTemperatureMax
p195
F33.63
sVtemperatureMax
p196
F41.63
sVtemperatureMaxTime
p197
I1416423600
sVwindBearing
p198
I244
sVmoonPhase
p199
F0.91
sVvisibility
p200
I10
sVsunsetTime
p201
I1416437193
sVpressure
p202
F1018.44
sVprecipProbability
p203
I0
sVapparentTemperatureMin
p204
F9.01
sVprecipIntensityMax
p205
I0
sVicon
p206
Vpartly-cloudy-day
p207
sVapparentTemperatureMaxTime
p208
I1416423600
sVhumidity
p209
F0.77
sVozone
p210
F322.17
sVwindSpeed
p211
F10.07
sVtime
p212
I1416376800
sVprecipIntensity
p213
I0
sVsunriseTime
p214
I1416401322
sVtemperatureMinTime
p215
I1416376800
ssg46
g9
(S'\x07\xde\x0b\x13\x10.!\x00\x00\x00'
p216
tp217
Rp218
sg50
g9
(S'\x07\xde\x0b\x13\x00\x00\x00\x00\x00\x00'
p219
tp220
Rp221
sbag1
(g2
g3
Ntp222
Rp223
(dp224
g7
I1416463200
sg8
g9
(S'\x07\xde\x0b\x14\x061/\x00\x00\x00'
p225
tp226
Rp227
sg13
(dp228
VapparentTemperatureMinTime
p229
I1416481200
sVprecipType
p230
Vsnow
p231
sVcloudCover
p232
F0.62
sVprecipIntensityMaxTime
p233
I1416542400
sVtemperatureMin
p234
F19.67
sVsummary
p235
VSnow starting in the afternoon.
p236
sVdewPoint
p237
F22.05
sVapparentTemperatureMax
p238
F35.66
sVtemperatureMax
p239
F35.66
sVtemperatureMaxTime
p240
I1416513600
sVwindBearing
p241
I284
sVmoonPhase
p242
F0.94
sVprecipAccumulation
p243
F1.056
sVsunsetTime
p244
I1416523557
sVpressure
p245
F1023.62
sVprecipProbability
p246
F0.51
sVapparentTemperatureMin
p247
F12.67
sVprecipIntensityMax
p248
F0.0258
sVicon
p249
Vsnow
p250
sVapparentTemperatureMaxTime
p251
I1416513600
sVhumidity
p252
F0.77
sVozone
p253
F304.75
sVwindSpeed
p254
F1.8
sVtime
p255
I1416463200
sVprecipIntensity
p256
F0.0052
sVsunriseTime
p257
I1416487787
sVtemperatureMinTime
p258
I1416481200
ssg46
g9
(S'\x07\xde\x0b\x14\x10-9\x00\x00\x00'
p259
tp260
Rp261
sg50
g9
(S'\x07\xde\x0b\x14\x00\x00\x00\x00\x00\x00'
p262
tp263
Rp264
sbag1
(g2
g3
Ntp265
Rp266
(dp267
g7
I1416549600
sg8
g9
(S'\x07\xde\x0b\x15\x0624\x00\x00\x00'
p268
tp269
Rp270
sg13
(dp271
VapparentTemperatureMinTime
p272
I1416628800
sVprecipType
p273
Vsnow
p274
sVcloudCover
p275
F0.59
sVprecipIntensityMaxTime
p276
I1416560400
sVtemperatureMin
p277
F24.32
sVsummary
p278
VSnow in the morning.
p279
sVdewPoint
p280
F25.42
sVapparentTemperatureMax
p281
F34.21
sVtemperatureMax
p282
F36.64
sVtemperatureMaxTime
p283
I1416600000
sVwindBearing
p284
I326
sVmoonPhase
p285
F0.97
sVprecipAccumulation
p286
F2.243
sVsunsetTime
p287
I1416609922
sVpressure
p288
F1024.08
sVprecipProbability
p289
F0.52
sVapparentTemperatureMin
p290
F19.46
sVprecipIntensityMax
p291
F0.0278
sVicon
p292
Vsnow
p293
sVapparentTemperatureMaxTime
p294
I1416600000
sVhumidity
p295
F0.84
sVozone
p296
F309.67
sVwindSpeed
p297
F1.82
sVtime
p298
I1416549600
sVprecipIntensity
p299
F0.0088
sVsunriseTime
p300
I1416574252
sVtemperatureMinTime
p301
I1416628800
ssg46
g9
(S'\x07\xde\x0b\x15\x10-\x16\x00\x00\x00'
p302
tp303
Rp304
sg50
g9
(S'\x07\xde\x0b\x15\x00\x00\x00\x00\x00\x00'
p305
tp306
Rp307
sbag1
(g2
g3
Ntp308
Rp309
(dp310
g7
I1416636000
sg8
g9
(S'\x07\xde\x0b\x16\x0639\x00\x00\x00'
p311
tp312
Rp313
sg13
(dp314
VapparentTemperatureMinTime
p315
I1416646800
sVprecipType
p316
Vsnow
p317
sVcloudCover
p318
F0.49
sVprecipIntensityMaxTime
p319
I1416718800
sVtemperatureMin
p320
F22.64
sVsummary
p321
VMostly cloudy throughout the day.
p322
sVdewPoint
p323
F29.61
sVapparentTemperatureMax
p324
F35.8
sVtemperatureMax
p325
I40
sVtemperatureMaxTime
p326
I1416690000
sVwindBearing
p327
I156
sVmoonPhase
p328
F0.01
sVprecipAccumulation
p329
F0.226
sVsunsetTime
p330
I1416696290
sVpressure
p331
F1023.73
sVprecipProbability
p332
F0.03
sVapparentTemperatureMin
p333
F17.28
sVprecipIntensityMax
p334
F0.0018
sVicon
p335
Vpartly-cloudy-night
p336
sVapparentTemperatureMaxTime
p337
I1416690000
sVhumidity
p338
F0.88
sVozone
p339
F296.14
sVwindSpeed
p340
F5.37
sVtime
p341
I1416636000
sVprecipIntensity
p342
F0.0011
sVsunriseTime
p343
I1416660717
sVtemperatureMinTime
p344
I1416646800
ssg46
g9
(S'\x07\xde\x0b\x16\x10,2\x00\x00\x00'
p345
tp346
Rp347
sg50
g9
(S'\x07\xde\x0b\x16\x00\x00\x00\x00\x00\x00'
p348
tp349
Rp350
sba.