(lp0
ccopy_reg
_reconstructor
p1
(cforecastio.models
ForecastioDataPoint
p2
c__builtin__
object
p3
Ntp4
Rp5
(dp6
S'utime'
p7
I1416103200
sS'sunriseTime'
p8
NsS'd'
p9
(dp10
Vozone
p11
F301.48
sVtemperature
p12
F31.07
sVicon
p13
Vsnow
p14
sVprecipType
p15
Vsnow
p16
sVhumidity
p17
F0.86
sVvisibility
p18
F5.16
sVsummary
p19
VFlurries
p20
sVapparentTemperature
p21
F31.07
sVpressure
p22
F1025.54
sVwindSpeed
p23
F2.86
sVcloudCover
p24
I1
sVtime
p25
I1416103200
sVwindBearing
p26
I103
sVprecipIntensity
p27
F0.0024
sVdewPoint
p28
F27.31
sVprecipProbability
p29
F0.02
ssS'sunsetTime'
p30
NsS'time'
p31
cdatetime
datetime
p32
(S'\x07\xde\x0b\x0f\x14\x00\x00\x00\x00\x00'
p33
tp34
Rp35
sbag1
(g2
g3
Ntp36
Rp37
(dp38
g7
I1416106800
sg8
Nsg9
(dp39
Vozone
p40
F299.97
sVtemperature
p41
F31.11
sVicon
p42
Vsnow
p43
sVprecipType
p44
Vsnow
p45
sVhumidity
p46
F0.9
sVvisibility
p47
F5.36
sVsummary
p48
VFlurries
p49
sVapparentTemperature
p50
F31.11
sVpressure
p51
F1025.45
sVwindSpeed
p52
F2.93
sVcloudCover
p53
I1
sVtime
p54
I1416106800
sVwindBearing
p55
I99
sVprecipIntensity
p56
F0.0022
sVdewPoint
p57
F28.65
sVprecipProbability
p58
F0.05
ssg30
Nsg31
g32
(S'\x07\xde\x0b\x0f\x15\x00\x00\x00\x00\x00'
p59
tp60
Rp61
sbag1
(g2
g3
Ntp62
Rp63
(dp64
g7
I1416110400
sg8
Nsg9
(dp65
Vozone
p66
F298.31
sVtemperature
p67
F30.67
sVicon
p68
Vcloudy
p69
sVdewPoint
p70
F28.6
sVhumidity
p71
F0.92
sVvisibility
p72
F5.66
sVsummary
p73
VOvercast
p74
sVapparentTemperature
p75
F30.67
sVpressure
p76
F1025.05
sVwindSpeed
p77
F2.76
sVcloudCover
p78
F0.94
sVtime
p79
I1416110400
sVwindBearing
p80
I104
sVprecipIntensity
p81
I0
sVprecipProbability
p82
I0
ssg30
Nsg31
g32
(S'\x07\xde\x0b\x0f\x16\x00\x00\x00\x00\x00'
p83
tp84
Rp85
sbag1
(g2
g3
Ntp86
Rp87
(dp88
g7
I1416114000
sg8
Nsg9
(dp89
Vozone
p90
F296.54
sVtemperature
p91
F30.31
sVicon
p92
Vpartly-cloudy-night
p93
sVdewPoint
p94
F28.45
sVhumidity
p95
F0.93
sVvisibility
p96
F5.97
sVsummary
p97
VMostly Cloudy
p98
sVapparentTemperature
p99
F30.31
sVpressure
p100
F1024.45
sVwindSpeed
p101
F2.62
sVcloudCover
p102
F0.87
sVtime
p103
I1416114000
sVwindBearing
p104
I117
sVprecipIntensity
p105
I0
sVprecipProbability
p106
I0
ssg30
Nsg31
g32
(S'\x07\xde\x0b\x0f\x17\x00\x00\x00\x00\x00'
p107
tp108
Rp109
sbag1
(g2
g3
Ntp110
Rp111
(dp112
g7
I1416117600
sg8
Nsg9
(dp113
Vozone
p114
F295.21
sVtemperature
p115
F30.01
sVicon
p116
Vpartly-cloudy-night
p117
sVdewPoint
p118
F28.16
sVhumidity
p119
F0.93
sVvisibility
p120
F5.94
sVsummary
p121
VMostly Cloudy
p122
sVapparentTemperature
p123
F30.01
sVpressure
p124
F1023.98
sVwindSpeed
p125
F2.25
sVcloudCover
p126
F0.82
sVtime
p127
I1416117600
sVwindBearing
p128
I130
sVprecipIntensity
p129
I0
sVprecipProbability
p130
I0
ssg30
Nsg31
g32
(S'\x07\xde\x0b\x10\x00\x00\x00\x00\x00\x00'
p131
tp132
Rp133
sbag1
(g2
g3
Ntp134
Rp135
(dp136
g7
I1416121200
sg8
Nsg9
(dp137
Vozone
p138
F294.63
sVtemperature
p139
F29.73
sVicon
p140
Vpartly-cloudy-night
p141
sVdewPoint
p142
F27.98
sVhumidity
p143
F0.93
sVvisibility
p144
F5.89
sVsummary
p145
VMostly Cloudy
p146
sVapparentTemperature
p147
F29.73
sVpressure
p148
F1023.76
sVwindSpeed
p149
F1.8
sVcloudCover
p150
F0.86
sVtime
p151
I1416121200
sVwindBearing
p152
I141
sVprecipIntensity
p153
I0
sVprecipProbability
p154
I0
ssg30
Nsg31
g32
(S'\x07\xde\x0b\x10\x01\x00\x00\x00\x00\x00'
p155
tp156
Rp157
sbag1
(g2
g3
Ntp158
Rp159
(dp160
g7
I1416124800
sg8
Nsg9
(dp161
Vozone
p162
F294.5
sVtemperature
p163
F29.3
sVicon
p164
Vcloudy
p165
sVdewPoint
p166
F27.51
sVhumidity
p167
F0.93
sVvisibility
p168
F8.18
sVsummary
p169
VOvercast
p170
sVapparentTemperature
p171
F29.3
sVpressure
p172
F1023.65
sVwindSpeed
p173
F2.13
sVcloudCover
p174
F0.94
sVtime
p175
I1416124800
sVwindBearing
p176
I153
sVprecipIntensity
p177
I0
sVprecipProbability
p178
I0
ssg30
Nsg31
g32
(S'\x07\xde\x0b\x10\x02\x00\x00\x00\x00\x00'
p179
tp180
Rp181
sbag1
(g2
g3
Ntp182
Rp183
(dp184
g7
I1416128400
sg8
Nsg9
(dp185
Vozone
p186
F294.51
sVtemperature
p187
F29.16
sVicon
p188
Vcloudy
p189
sVdewPoint
p190
F27.32
sVhumidity
p191
F0.93
sVvisibility
p192
F7.75
sVsummary
p193
VOvercast
p194
sVapparentTemperature
p195
F29.16
sVpressure
p196
F1023.49
sVwindSpeed
p197
F2.2
sVcloudCover
p198
I1
sVtime
p199
I1416128400
sVwindBearing
p200
I159
sVprecipIntensity
p201
I0
sVprecipProbability
p202
I0
ssg30
Nsg31
g32
(S'\x07\xde\x0b\x10\x03\x00\x00\x00\x00\x00'
p203
tp204
Rp205
sbag1
(g2
g3
Ntp206
Rp207
(dp208
g7
I1416132000
sg8
Nsg9
(dp209
Vozone
p210
F294.6
sVtemperature
p211
F29.12
sVicon
p212
Vcloudy
p213
sVdewPoint
p214
F27.3
sVhumidity
p215
F0.93
sVvisibility
p216
F7.54
sVsummary
p217
VOvercast
p218
sVapparentTemperature
p219
F29.12
sVpressure
p220
F1023.18
sVwindSpeed
p221
F2.53
sVcloudCover
p222
I1
sVtime
p223
I1416132000
sVwindBearing
p224
I161
sVprecipIntensity
p225
I0
sVprecipProbability
p226
I0
ssg30
Nsg31
g32
(S'\x07\xde\x0b\x10\x04\x00\x00\x00\x00\x00'
p227
tp228
Rp229
sbag1
(g2
g3
Ntp230
Rp231
(dp232
g7
I1416135600
sg8
Nsg9
(dp233
Vozone
p234
F294.83
sVtemperature
p235
F28.82
sVicon
p236
Vcloudy
p237
sVdewPoint
p238
F26.95
sVhumidity
p239
F0.93
sVvisibility
p240
F7.49
sVsummary
p241
VOvercast
p242
sVapparentTemperature
p243
F28.82
sVpressure
p244
F1022.82
sVwindSpeed
p245
F2.55
sVcloudCover
p246
I1
sVtime
p247
I1416135600
sVwindBearing
p248
I156
sVprecipIntensity
p249
I0
sVprecipProbability
p250
I0
ssg30
Nsg31
g32
(S'\x07\xde\x0b\x10\x05\x00\x00\x00\x00\x00'
p251
tp252
Rp253
sbag1
(g2
g3
Ntp254
Rp255
(dp256
g7
I1416139200
sg8
Nsg9
(dp257
Vozone
p258
F295.07
sVtemperature
p259
F28.89
sVicon
p260
Vcloudy
p261
sVdewPoint
p262
F26.75
sVhumidity
p263
F0.92
sVvisibility
p264
F7.6
sVsummary
p265
VOvercast
p266
sVapparentTemperature
p267
F28.89
sVpressure
p268
F1022.52
sVwindSpeed
p269
F2.72
sVcloudCover
p270
I1
sVtime
p271
I1416139200
sVwindBearing
p272
I158
sVprecipIntensity
p273
I0
sVprecipProbability
p274
I0
ssg30
Nsg31
g32
(S'\x07\xde\x0b\x10\x06\x00\x00\x00\x00\x00'
p275
tp276
Rp277
sbag1
(g2
g3
Ntp278
Rp279
(dp280
g7
I1416142800
sg8
Nsg9
(dp281
Vozone
p282
F295.38
sVtemperature
p283
F29.34
sVicon
p284
Vcloudy
p285
sVdewPoint
p286
F26.39
sVhumidity
p287
F0.89
sVvisibility
p288
F7.94
sVsummary
p289
VOvercast
p290
sVapparentTemperature
p291
F29.34
sVpressure
p292
F1022.41
sVwindSpeed
p293
F2.72
sVcloudCover
p294
F0.98
sVtime
p295
I1416142800
sVwindBearing
p296
I175
sVprecipIntensity
p297
I0
sVprecipProbability
p298
I0
ssg30
Nsg31
g32
(S'\x07\xde\x0b\x10\x07\x00\x00\x00\x00\x00'
p299
tp300
Rp301
sbag1
(g2
g3
Ntp302
Rp303
(dp304
g7
I1416146400
sg8
Nsg9
(dp305
Vozone
p306
F295.7
sVtemperature
p307
F31.18
sVicon
p308
Vcloudy
p309
sVdewPoint
p310
F26.97
sVhumidity
p311
F0.84
sVvisibility
p312
F8.25
sVsummary
p313
VOvercast
p314
sVapparentTemperature
p315
F31.18
sVpressure
p316
F1022.37
sVwindSpeed
p317
F2.44
sVcloudCover
p318
F0.97
sVtime
p319
I1416146400
sVwindBearing
p320
I185
sVprecipIntensity
p321
I0
sVprecipProbability
p322
I0
ssg30
Nsg31
g32
(S'\x07\xde\x0b\x10\x08\x00\x00\x00\x00\x00'
p323
tp324
Rp325
sbag1
(g2
g3
Ntp326
Rp327
(dp328
g7
I1416150000
sg8
Nsg9
(dp329
Vozone
p330
F295.76
sVtemperature
p331
F32.56
sVicon
p332
Vcloudy
p333
sVdewPoint
p334
F27.1
sVhumidity
p335
F0.8
sVvisibility
p336
F8.37
sVsummary
p337
VOvercast
p338
sVapparentTemperature
p339
F29.34
sVpressure
p340
F1022.18
sVwindSpeed
p341
F3.47
sVcloudCover
p342
F0.96
sVtime
p343
I1416150000
sVwindBearing
p344
I224
sVprecipIntensity
p345
I0
sVprecipProbability
p346
I0
ssg30
Nsg31
g32
(S'\x07\xde\x0b\x10\t\x00\x00\x00\x00\x00'
p347
tp348
Rp349
sbag1
(g2
g3
Ntp350
Rp351
(dp352
g7
I1416153600
sg8
Nsg9
(dp353
Vozone
p354
F295.4
sVtemperature
p355
F33.83
sVicon
p356
Vsnow
p357
sVprecipType
p358
Vsnow
p359
sVhumidity
p360
F0.79
sVvisibility
p361
F6.23
sVsummary
p362
VFlurries
p363
sVapparentTemperature
p364
F30.09
sVpressure
p365
F1021.76
sVwindSpeed
p366
F4.09
sVcloudCover
p367
F0.96
sVtime
p368
I1416153600
sVwindBearing
p369
I239
sVprecipIntensity
p370
F0.0025
sVdewPoint
p371
F27.99
sVprecipProbability
p372
F0.02
ssg30
Nsg31
g32
(S'\x07\xde\x0b\x10\n\x00\x00\x00\x00\x00'
p373
tp374
Rp375
sbag1
(g2
g3
Ntp376
Rp377
(dp378
g7
I1416157200
sg8
Nsg9
(dp379
Vozone
p380
F294.79
sVtemperature
p381
F34.59
sVicon
p382
Vsnow
p383
sVprecipType
p384
Vsnow
p385
sVhumidity
p386
F0.8
sVvisibility
p387
F5.44
sVsummary
p388
VLight Snow
p389
sVapparentTemperature
p390
F31.58
sVpressure
p391
F1021.16
sVwindSpeed
p392
F3.53
sVcloudCover
p393
F0.98
sVtime
p394
I1416157200
sVwindBearing
p395
I247
sVprecipIntensity
p396
F0.0094
sVdewPoint
p397
F29.17
sVprecipProbability
p398
F0.48
ssg30
Nsg31
g32
(S'\x07\xde\x0b\x10\x0b\x00\x00\x00\x00\x00'
p399
tp400
Rp401
sbag1
(g2
g3
Ntp402
Rp403
(dp404
g7
I1416160800
sg8
Nsg9
(dp405
Vozone
p406
F294.18
sVtemperature
p407
F34.83
sVicon
p408
Vsnow
p409
sVprecipType
p410
Vsnow
p411
sVhumidity
p412
F0.82
sVvisibility
p413
F4.33
sVsummary
p414
VLight Snow
p415
sVapparentTemperature
p416
F31.01
sVpressure
p417
F1020.54
sVwindSpeed
p418
F4.33
sVcloudCover
p419
I1
sVtime
p420
I1416160800
sVwindBearing
p421
I257
sVprecipIntensity
p422
F0.0152
sVdewPoint
p423
F29.89
sVprecipProbability
p424
F0.62
ssg30
Nsg31
g32
(S'\x07\xde\x0b\x10\x0c\x00\x00\x00\x00\x00'
p425
tp426
Rp427
sbag1
(g2
g3
Ntp428
Rp429
(dp430
g7
I1416164400
sg8
Nsg9
(dp431
Vozone
p432
F293.31
sVtemperature
p433
F34.99
sVicon
p434
Vsnow
p435
sVprecipType
p436
Vsnow
p437
sVhumidity
p438
F0.84
sVvisibility
p439
F4.12
sVsummary
p440
VSnow
p441
sVapparentTemperature
p442
F31.28
sVpressure
p443
F1019.75
sVwindSpeed
p444
F4.25
sVcloudCover
p445
I1
sVtime
p446
I1416164400
sVwindBearing
p447
I268
sVprecipIntensity
p448
F0.0247
sVdewPoint
p449
F30.53
sVprecipProbability
p450
F0.71
ssg30
Nsg31
g32
(S'\x07\xde\x0b\x10\r\x00\x00\x00\x00\x00'
p451
tp452
Rp453
sbag1
(g2
g3
Ntp454
Rp455
(dp456
g7
I1416168000
sg8
Nsg9
(dp457
Vozone
p458
F292.44
sVtemperature
p459
F34.72
sVicon
p460
Vsnow
p461
sVprecipType
p462
Vsnow
p463
sVhumidity
p464
F0.87
sVvisibility
p465
F3.31
sVsummary
p466
VSnow
p467
sVapparentTemperature
p468
F30.93
sVpressure
p469
F1018.87
sVwindSpeed
p470
F4.29
sVcloudCover
p471
I1
sVtime
p472
I1416168000
sVwindBearing
p473
I268
sVprecipIntensity
p474
F0.0392
sVdewPoint
p475
F31.37
sVprecipProbability
p476
F0.83
ssg30
Nsg31
g32
(S'\x07\xde\x0b\x10\x0e\x00\x00\x00\x00\x00'
p477
tp478
Rp479
sbag1
(g2
g3
Ntp480
Rp481
(dp482
g7
I1416171600
sg8
Nsg9
(dp483
Vozone
p484
F292.63
sVtemperature
p485
F34.37
sVicon
p486
Vsnow
p487
sVprecipType
p488
Vsnow
p489
sVhumidity
p490
F0.91
sVvisibility
p491
F2.83
sVsummary
p492
VSnow
p493
sVapparentTemperature
p494
F30.49
sVpressure
p495
F1018.24
sVwindSpeed
p496
F4.31
sVcloudCover
p497
I1
sVtime
p498
I1416171600
sVwindBearing
p499
I269
sVprecipIntensity
p500
F0.0477
sVdewPoint
p501
F32.03
sVprecipProbability
p502
F0.91
ssg30
Nsg31
g32
(S'\x07\xde\x0b\x10\x0f\x00\x00\x00\x00\x00'
p503
tp504
Rp505
sbag1
(g2
g3
Ntp506
Rp507
(dp508
g7
I1416175200
sg8
Nsg9
(dp509
Vozone
p510
F294.01
sVtemperature
p511
F33.79
sVicon
p512
Vsnow
p513
sVprecipType
p514
Vsnow
p515
sVhumidity
p516
F0.93
sVvisibility
p517
F2.33
sVsummary
p518
VSnow
p519
sVapparentTemperature
p520
F29.77
sVpressure
p521
F1018.09
sVwindSpeed
p522
F4.36
sVcloudCover
p523
I1
sVtime
p524
I1416175200
sVwindBearing
p525
I275
sVprecipIntensity
p526
F0.0419
sVdewPoint
p527
I32
sVprecipProbability
p528
F0.91
ssg30
Nsg31
g32
(S'\x07\xde\x0b\x10\x10\x00\x00\x00\x00\x00'
p529
tp530
Rp531
sbag1
(g2
g3
Ntp532
Rp533
(dp534
g7
I1416178800
sg8
Nsg9
(dp535
Vozone
p536
F296.45
sVtemperature
p537
F33.11
sVicon
p538
Vsnow
p539
sVprecipType
p540
Vsnow
p541
sVhumidity
p542
F0.94
sVvisibility
p543
F2.81
sVsummary
p544
VSnow
p545
sVapparentTemperature
p546
F30.4
sVpressure
p547
F1018.2
sVwindSpeed
p548
F3.13
sVcloudCover
p549
I1
sVtime
p550
I1416178800
sVwindBearing
p551
I275
sVprecipIntensity
p552
F0.0277
sVdewPoint
p553
F31.59
sVprecipProbability
p554
F0.85
ssg30
Nsg31
g32
(S'\x07\xde\x0b\x10\x11\x00\x00\x00\x00\x00'
p555
tp556
Rp557
sbag1
(g2
g3
Ntp558
Rp559
(dp560
g7
I1416182400
sg8
Nsg9
(dp561
Vozone
p562
F300.65
sVtemperature
p563
F32.37
sVicon
p564
Vsnow
p565
sVprecipType
p566
Vsnow
p567
sVhumidity
p568
F0.95
sVvisibility
p569
F2.98
sVsummary
p570
VLight Snow
p571
sVapparentTemperature
p572
F29.48
sVpressure
p573
F1018.24
sVwindSpeed
p574
F3.19
sVcloudCover
p575
I1
sVtime
p576
I1416182400
sVwindBearing
p577
I282
sVprecipIntensity
p578
F0.0163
sVdewPoint
p579
F30.97
sVprecipProbability
p580
F0.78
ssg30
Nsg31
g32
(S'\x07\xde\x0b\x10\x12\x00\x00\x00\x00\x00'
p581
tp582
Rp583
sbag1
(g2
g3
Ntp584
Rp585
(dp586
g7
I1416186000
sg8
Nsg9
(dp587
Vozone
p588
F307.43
sVtemperature
p589
F32.01
sVicon
p590
Vsnow
p591
sVprecipType
p592
Vsnow
p593
sVhumidity
p594
F0.95
sVvisibility
p595
F2.91
sVsummary
p596
VLight Snow
p597
sVapparentTemperature
p598
F28.62
sVpressure
p599
F1018.07
sVwindSpeed
p600
F3.55
sVcloudCover
p601
I1
sVtime
p602
I1416186000
sVwindBearing
p603
I295
sVprecipIntensity
p604
F0.0134
sVdewPoint
p605
F30.68
sVprecipProbability
p606
F0.67
ssg30
Nsg31
g32
(S'\x07\xde\x0b\x10\x13\x00\x00\x00\x00\x00'
p607
tp608
Rp609
sbag1
(g2
g3
Ntp610
Rp611
(dp612
g7
I1416189600
sg8
Nsg9
(dp613
Vozone
p614
F315.97
sVtemperature
p615
F32.02
sVicon
p616
Vsnow
p617
sVprecipType
p618
Vsnow
p619
sVhumidity
p620
F0.95
sVvisibility
p621
F1.97
sVsummary
p622
VLight Snow
p623
sVapparentTemperature
p624
F27.44
sVpressure
p625
F1017.82
sVwindSpeed
p626
F4.64
sVcloudCover
p627
I1
sVtime
p628
I1416189600
sVwindBearing
p629
I291
sVprecipIntensity
p630
F0.014
sVdewPoint
p631
F30.63
sVprecipProbability
p632
F0.54
ssg30
Nsg31
g32
(S'\x07\xde\x0b\x10\x14\x00\x00\x00\x00\x00'
p633
tp634
Rp635
sbag1
(g2
g3
Ntp636
Rp637
(dp638
g7
I1416193200
sg8
Nsg9
(dp639
Vozone
p640
F324.41
sVtemperature
p641
F31.45
sVicon
p642
Vsnow
p643
sVprecipType
p644
Vsnow
p645
sVhumidity
p646
F0.94
sVvisibility
p647
F1.34
sVsummary
p648
VLight Snow
p649
sVapparentTemperature
p650
F25.42
sVpressure
p651
F1017.63
sVwindSpeed
p652
F6.21
sVcloudCover
p653
I1
sVtime
p654
I1416193200
sVwindBearing
p655
I290
sVprecipIntensity
p656
F0.0145
sVdewPoint
p657
F29.85
sVprecipProbability
p658
F0.44
ssg30
Nsg31
g32
(S'\x07\xde\x0b\x10\x15\x00\x00\x00\x00\x00'
p659
tp660
Rp661
sbag1
(g2
g3
Ntp662
Rp663
(dp664
g7
I1416196800
sg8
Nsg9
(dp665
Vozone
p666
F332.68
sVtemperature
p667
F30.36
sVicon
p668
Vsnow
p669
sVprecipType
p670
Vsnow
p671
sVhumidity
p672
F0.92
sVvisibility
p673
F0.8
sVsummary
p674
VLight Snow
p675
sVapparentTemperature
p676
F22.82
sVpressure
p677
F1017.53
sVwindSpeed
p678
F8.05
sVcloudCover
p679
F0.98
sVtime
p680
I1416196800
sVwindBearing
p681
I291
sVprecipIntensity
p682
F0.0137
sVdewPoint
p683
F28.34
sVprecipProbability
p684
F0.41
ssg30
Nsg31
g32
(S'\x07\xde\x0b\x10\x16\x00\x00\x00\x00\x00'
p685
tp686
Rp687
sbag1
(g2
g3
Ntp688
Rp689
(dp690
g7
I1416200400
sg8
Nsg9
(dp691
Vozone
p692
F340.86
sVtemperature
p693
F28.91
sVicon
p694
Vsnow
p695
sVprecipType
p696
Vsnow
p697
sVhumidity
p698
F0.9
sVvisibility
p699
F0.51
sVsummary
p700
VLight Snow
p701
sVapparentTemperature
p702
F19.88
sVpressure
p703
F1017.45
sVwindSpeed
p704
F10.03
sVcloudCover
p705
F0.95
sVtime
p706
I1416200400
sVwindBearing
p707
I293
sVprecipIntensity
p708
F0.0129
sVdewPoint
p709
F26.33
sVprecipProbability
p710
F0.43
ssg30
Nsg31
g32
(S'\x07\xde\x0b\x10\x17\x00\x00\x00\x00\x00'
p711
tp712
Rp713
sbag1
(g2
g3
Ntp714
Rp715
(dp716
g7
I1416204000
sg8
Nsg9
(dp717
Vozone
p718
F347.33
sVtemperature
p719
F27.52
sVicon
p720
Vsnow
p721
sVprecipType
p722
Vsnow
p723
sVhumidity
p724
F0.88
sVvisibility
p725
F1.05
sVsummary
p726
VLight Snow
p727
sVapparentTemperature
p728
F17.4
sVpressure
p729
F1017.4
sVwindSpeed
p730
F11.49
sVcloudCover
p731
F0.91
sVtime
p732
I1416204000
sVwindBearing
p733
I293
sVprecipIntensity
p734
F0.0114
sVdewPoint
p735
F24.39
sVprecipProbability
p736
F0.42
ssg30
Nsg31
g32
(S'\x07\xde\x0b\x11\x00\x00\x00\x00\x00\x00'
p737
tp738
Rp739
sbag1
(g2
g3
Ntp740
Rp741
(dp742
g7
I1416207600
sg8
Nsg9
(dp743
Vozone
p744
F351.16
sVtemperature
p745
F26.12
sVicon
p746
Vsnow
p747
sVprecipType
p748
Vsnow
p749
sVhumidity
p750
F0.86
sVvisibility
p751
F3.09
sVsummary
p752
VLight Snow
p753
sVapparentTemperature
p754
F15.26
sVpressure
p755
F1017.35
sVwindSpeed
p756
F12.26
sVcloudCover
p757
F0.82
sVtime
p758
I1416207600
sVwindBearing
p759
I294
sVprecipIntensity
p760
F0.0087
sVdewPoint
p761
F22.43
sVprecipProbability
p762
F0.32
ssg30
Nsg31
g32
(S'\x07\xde\x0b\x11\x01\x00\x00\x00\x00\x00'
p763
tp764
Rp765
sbag1
(g2
g3
Ntp766
Rp767
(dp768
g7
I1416211200
sg8
Nsg9
(dp769
Vozone
p770
F353.28
sVtemperature
p771
F24.6
sVicon
p772
Vsnow
p773
sVprecipType
p774
Vsnow
p775
sVhumidity
p776
F0.84
sVvisibility
p777
F6.01
sVsummary
p778
VLight Snow
p779
sVapparentTemperature
p780
F13.46
sVpressure
p781
F1017.33
sVwindSpeed
p782
F12.03
sVcloudCover
p783
F0.73
sVtime
p784
I1416211200
sVwindBearing
p785
I292
sVprecipIntensity
p786
F0.0054
sVdewPoint
p787
F20.35
sVprecipProbability
p788
F0.12
ssg30
Nsg31
g32
(S'\x07\xde\x0b\x11\x02\x00\x00\x00\x00\x00'
p789
tp790
Rp791
sbag1
(g2
g3
Ntp792
Rp793
(dp794
g7
I1416214800
sg8
Nsg9
(dp795
Vozone
p796
F354.81
sVtemperature
p797
F23.17
sVicon
p798
Vsnow
p799
sVprecipType
p800
Vsnow
p801
sVhumidity
p802
F0.82
sVvisibility
p803
F8.3
sVsummary
p804
VLight Snow
p805
sVapparentTemperature
p806
F11.79
sVpressure
p807
F1017.39
sVwindSpeed
p808
F11.79
sVcloudCover
p809
F0.67
sVtime
p810
I1416214800
sVwindBearing
p811
I292
sVprecipIntensity
p812
F0.0027
sVdewPoint
p813
F18.51
sVprecipProbability
p814
F0.03
ssg30
Nsg31
g32
(S'\x07\xde\x0b\x11\x03\x00\x00\x00\x00\x00'
p815
tp816
Rp817
sbag1
(g2
g3
Ntp818
Rp819
(dp820
g7
I1416218400
sg8
Nsg9
(dp821
Vozone
p822
F355.8
sVtemperature
p823
F21.91
sVicon
p824
Vsnow
p825
sVprecipType
p826
Vsnow
p827
sVhumidity
p828
F0.82
sVvisibility
p829
F9.44
sVsummary
p830
VFlurries
p831
sVapparentTemperature
p832
F10.18
sVpressure
p833
F1017.53
sVwindSpeed
p834
F11.84
sVcloudCover
p835
F0.68
sVtime
p836
I1416218400
sVwindBearing
p837
I291
sVprecipIntensity
p838
F0.0014
sVdewPoint
p839
F17.15
sVprecipProbability
p840
F0.01
ssg30
Nsg31
g32
(S'\x07\xde\x0b\x11\x04\x00\x00\x00\x00\x00'
p841
tp842
Rp843
sbag1
(g2
g3
Ntp844
Rp845
(dp846
g7
I1416222000
sg8
Nsg9
(dp847
Vozone
p848
F356.21
sVtemperature
p849
F20.97
sVicon
p850
Vpartly-cloudy-night
p851
sVdewPoint
p852
F16.25
sVhumidity
p853
F0.82
sVvisibility
p854
F9.95
sVsummary
p855
VMostly Cloudy
p856
sVapparentTemperature
p857
F8.9
sVpressure
p858
F1017.74
sVwindSpeed
p859
F12.01
sVcloudCover
p860
F0.72
sVtime
p861
I1416222000
sVwindBearing
p862
I291
sVprecipIntensity
p863
I0
sVprecipProbability
p864
I0
ssg30
Nsg31
g32
(S'\x07\xde\x0b\x11\x05\x00\x00\x00\x00\x00'
p865
tp866
Rp867
sbag1
(g2
g3
Ntp868
Rp869
(dp870
g7
I1416225600
sg8
Nsg9
(dp871
Vozone
p872
F357.07
sVtemperature
p873
F20.55
sVicon
p874
Vpartly-cloudy-night
p875
sVdewPoint
p876
F15.71
sVhumidity
p877
F0.81
sVvisibility
p878
I10
sVsummary
p879
VMostly Cloudy
p880
sVapparentTemperature
p881
F8.05
sVpressure
p882
F1018.11
sVwindSpeed
p883
F12.62
sVcloudCover
p884
F0.77
sVtime
p885
I1416225600
sVwindBearing
p886
I292
sVprecipIntensity
p887
I0
sVprecipProbability
p888
I0
ssg30
Nsg31
g32
(S'\x07\xde\x0b\x11\x06\x00\x00\x00\x00\x00'
p889
tp890
Rp891
sbag1
(g2
g3
Ntp892
Rp893
(dp894
g7
I1416229200
sg8
Nsg9
(dp895
Vozone
p896
F358.9
sVtemperature
p897
F20.78
sVicon
p898
Vpartly-cloudy-day
p899
sVdewPoint
p900
F15.53
sVhumidity
p901
F0.8
sVvisibility
p902
F9.32
sVsummary
p903
VMostly Cloudy
p904
sVapparentTemperature
p905
F7.56
sVpressure
p906
F1018.83
sVwindSpeed
p907
F14.22
sVcloudCover
p908
F0.79
sVtime
p909
I1416229200
sVwindBearing
p910
I295
sVprecipIntensity
p911
I0
sVprecipProbability
p912
I0
ssg30
Nsg31
g32
(S'\x07\xde\x0b\x11\x07\x00\x00\x00\x00\x00'
p913
tp914
Rp915
sbag1
(g2
g3
Ntp916
Rp917
(dp918
g7
I1416232800
sg8
Nsg9
(dp919
Vozone
p920
F361.17
sVtemperature
p921
F21.46
sVicon
p922
Vpartly-cloudy-day
p923
sVdewPoint
p924
F15.63
sVhumidity
p925
F0.78
sVvisibility
p926
F8.18
sVsummary
p927
VMostly Cloudy
p928
sVapparentTemperature
p929
F7.59
sVpressure
p930
F1019.71
sVwindSpeed
p931
F16.18
sVcloudCover
p932
F0.8
sVtime
p933
I1416232800
sVwindBearing
p934
I297
sVprecipIntensity
p935
I0
sVprecipProbability
p936
I0
ssg30
Nsg31
g32
(S'\x07\xde\x0b\x11\x08\x00\x00\x00\x00\x00'
p937
tp938
Rp939
sbag1
(g2
g3
Ntp940
Rp941
(dp942
g7
I1416236400
sg8
Nsg9
(dp943
Vozone
p944
F363.41
sVtemperature
p945
F22.24
sVicon
p946
Vpartly-cloudy-day
p947
sVdewPoint
p948
F15.66
sVhumidity
p949
F0.75
sVvisibility
p950
F7.58
sVsummary
p951
VMostly Cloudy
p952
sVapparentTemperature
p953
F8.06
sVpressure
p954
F1020.37
sVwindSpeed
p955
F17.56
sVcloudCover
p956
F0.8
sVtime
p957
I1416236400
sVwindBearing
p958
I298
sVprecipIntensity
p959
I0
sVprecipProbability
p960
I0
ssg30
Nsg31
g32
(S'\x07\xde\x0b\x11\t\x00\x00\x00\x00\x00'
p961
tp962
Rp963
sbag1
(g2
g3
Ntp964
Rp965
(dp966
g7
I1416240000
sg8
Nsg9
(dp967
Vozone
p968
F365.58
sVtemperature
p969
F22.99
sVicon
p970
Vpartly-cloudy-day
p971
sVdewPoint
p972
F15.37
sVhumidity
p973
F0.72
sVvisibility
p974
F8.12
sVsummary
p975
VMostly Cloudy
p976
sVapparentTemperature
p977
F8.82
sVpressure
p978
F1020.6
sVwindSpeed
p979
F18.12
sVcloudCover
p980
F0.8
sVtime
p981
I1416240000
sVwindBearing
p982
I296
sVprecipIntensity
p983
I0
sVprecipProbability
p984
I0
ssg30
Nsg31
g32
(S'\x07\xde\x0b\x11\n\x00\x00\x00\x00\x00'
p985
tp986
Rp987
sbag1
(g2
g3
Ntp988
Rp989
(dp990
g7
I1416243600
sg8
Nsg9
(dp991
Vozone
p992
F367.72
sVtemperature
p993
F23.88
sVicon
p994
Vpartly-cloudy-day
p995
sVdewPoint
p996
F15.06
sVhumidity
p997
F0.69
sVvisibility
p998
F9.2
sVsummary
p999
VMostly Cloudy
p1000
sVapparentTemperature
p1001
F9.95
sVpressure
p1002
F1020.61
sVwindSpeed
p1003
F18.21
sVcloudCover
p1004
F0.81
sVtime
p1005
I1416243600
sVwindBearing
p1006
I293
sVprecipIntensity
p1007
I0
sVprecipProbability
p1008
I0
ssg30
Nsg31
g32
(S'\x07\xde\x0b\x11\x0b\x00\x00\x00\x00\x00'
p1009
tp1010
Rp1011
sbag1
(g2
g3
Ntp1012
Rp1013
(dp1014
g7
I1416247200
sg8
Nsg9
(dp1015
Vozone
p1016
F369.4
sVtemperature
p1017
F24.68
sVicon
p1018
Vpartly-cloudy-day
p1019
sVdewPoint
p1020
F14.82
sVhumidity
p1021
F0.66
sVvisibility
p1022
I10
sVsummary
p1023
VMostly Cloudy
p1024
sVapparentTemperature
p1025
F10.99
sVpressure
p1026
F1020.64
sVwindSpeed
p1027
F18.19
sVcloudCover
p1028
F0.82
sVtime
p1029
I1416247200
sVwindBearing
p1030
I289
sVprecipIntensity
p1031
I0
sVprecipProbability
p1032
I0
ssg30
Nsg31
g32
(S'\x07\xde\x0b\x11\x0c\x00\x00\x00\x00\x00'
p1033
tp1034
Rp1035
sbag1
(g2
g3
Ntp1036
Rp1037
(dp1038
g7
I1416250800
sg8
Nsg9
(dp1039
Vozone
p1040
F370.47
sVtemperature
p1041
F25.05
sVicon
p1042
Vpartly-cloudy-day
p1043
sVdewPoint
p1044
F14.48
sVhumidity
p1045
F0.64
sVvisibility
p1046
I10
sVsummary
p1047
VMostly Cloudy
p1048
sVapparentTemperature
p1049
F11.46
sVpressure
p1050
F1020.71
sVwindSpeed
p1051
F18.22
sVcloudCover
p1052
F0.86
sVtime
p1053
I1416250800
sVwindBearing
p1054
I286
sVprecipIntensity
p1055
I0
sVprecipProbability
p1056
I0
ssg30
Nsg31
g32
(S'\x07\xde\x0b\x11\r\x00\x00\x00\x00\x00'
p1057
tp1058
Rp1059
sbag1
(g2
g3
Ntp1060
Rp1061
(dp1062
g7
I1416254400
sg8
Nsg9
(dp1063
Vozone
p1064
F371.08
sVtemperature
p1065
F25.04
sVicon
p1066
Vpartly-cloudy-day
p1067
sVdewPoint
p1068
I14
sVhumidity
p1069
F0.62
sVvisibility
p1070
I10
sVsummary
p1071
VMostly Cloudy
p1072
sVapparentTemperature
p1073
F11.43
sVpressure
p1074
F1020.8
sVwindSpeed
p1075
F18.28
sVcloudCover
p1076
F0.92
sVtime
p1077
I1416254400
sVwindBearing
p1078
I284
sVprecipIntensity
p1079
I0
sVprecipProbability
p1080
I0
ssg30
Nsg31
g32
(S'\x07\xde\x0b\x11\x0e\x00\x00\x00\x00\x00'
p1081
tp1082
Rp1083
sbag1
(g2
g3
Ntp1084
Rp1085
(dp1086
g7
I1416258000
sg8
Nsg9
(dp1087
Vozone
p1088
F371.26
sVtemperature
p1089
F24.62
sVicon
p1090
Vwind
p1091
sVdewPoint
p1092
F13.54
sVhumidity
p1093
F0.62
sVvisibility
p1094
F9.94
sVsummary
p1095
VBreezy and Overcast
p1096
sVapparentTemperature
p1097
F10.95
sVpressure
p1098
F1021.06
sVwindSpeed
p1099
F18.09
sVcloudCover
p1100
F0.96
sVtime
p1101
I1416258000
sVwindBearing
p1102
I282
sVprecipIntensity
p1103
I0
sVprecipProbability
p1104
I0
ssg30
Nsg31
g32
(S'\x07\xde\x0b\x11\x0f\x00\x00\x00\x00\x00'
p1105
tp1106
Rp1107
sbag1
(g2
g3
Ntp1108
Rp1109
(dp1110
g7
I1416261600
sg8
Nsg9
(dp1111
Vozone
p1112
F370.95
sVtemperature
p1113
F23.59
sVicon
p1114
Vcloudy
p1115
sVdewPoint
p1116
F13.18
sVhumidity
p1117
F0.64
sVvisibility
p1118
F9.96
sVsummary
p1119
VOvercast
p1120
sVapparentTemperature
p1121
F9.77
sVpressure
p1122
F1021.63
sVwindSpeed
p1123
F17.65
sVcloudCover
p1124
F0.97
sVtime
p1125
I1416261600
sVwindBearing
p1126
I282
sVprecipIntensity
p1127
I0
sVprecipProbability
p1128
I0
ssg30
Nsg31
g32
(S'\x07\xde\x0b\x11\x10\x00\x00\x00\x00\x00'
p1129
tp1130
Rp1131
sbag1
(g2
g3
Ntp1132
Rp1133
(dp1134
g7
I1416265200
sg8
Nsg9
(dp1135
Vozone
p1136
F370.21
sVtemperature
p1137
F22.21
sVicon
p1138
Vcloudy
p1139
sVdewPoint
p1140
F12.84
sVhumidity
p1141
F0.67
sVvisibility
p1142
F9.98
sVsummary
p1143
VOvercast
p1144
sVapparentTemperature
p1145
F8.17
sVpressure
p1146
F1022.31
sVwindSpeed
p1147
F17.15
sVcloudCover
p1148
F0.96
sVtime
p1149
I1416265200
sVwindBearing
p1150
I281
sVprecipIntensity
p1151
I0
sVprecipProbability
p1152
I0
ssg30
Nsg31
g32
(S'\x07\xde\x0b\x11\x11\x00\x00\x00\x00\x00'
p1153
tp1154
Rp1155
sbag1
(g2
g3
Ntp1156
Rp1157
(dp1158
g7
I1416268800
sg8
Nsg9
(dp1159
Vozone
p1160
F369.17
sVtemperature
p1161
F21.05
sVicon
p1162
Vpartly-cloudy-night
p1163
sVdewPoint
p1164
F12.45
sVhumidity
p1165
F0.69
sVvisibility
p1166
I10
sVsummary
p1167
VMostly Cloudy
p1168
sVapparentTemperature
p1169
F6.9
sVpressure
p1170
F1022.91
sVwindSpeed
p1171
F16.59
sVcloudCover
p1172
F0.93
sVtime
p1173
I1416268800
sVwindBearing
p1174
I281
sVprecipIntensity
p1175
I0
sVprecipProbability
p1176
I0
ssg30
Nsg31
g32
(S'\x07\xde\x0b\x11\x12\x00\x00\x00\x00\x00'
p1177
tp1178
Rp1179
sbag1
(g2
g3
Ntp1180
Rp1181
(dp1182
g7
I1416272400
sg8
Nsg9
(dp1183
Vozone
p1184
F367.98
sVtemperature
p1185
F20.41
sVicon
p1186
Vpartly-cloudy-night
p1187
sVdewPoint
p1188
F12.09
sVhumidity
p1189
F0.7
sVvisibility
p1190
I10
sVsummary
p1191
VMostly Cloudy
p1192
sVapparentTemperature
p1193
F6.3
sVpressure
p1194
F1023.48
sVwindSpeed
p1195
F16.03
sVcloudCover
p1196
F0.9
sVtime
p1197
I1416272400
sVwindBearing
p1198
I278
sVprecipIntensity
p1199
I0
sVprecipProbability
p1200
I0
ssg30
Nsg31
g32
(S'\x07\xde\x0b\x11\x13\x00\x00\x00\x00\x00'
p1201
tp1202
Rp1203
sbag1
(g2
g3
Ntp1204
Rp1205
(dp1206
g7
I1416276000
sg8
Nsg9
(dp1207
Vozone
p1208
F366.5
sVtemperature
p1209
F20.02
sVicon
p1210
Vpartly-cloudy-night
p1211
sVdewPoint
p1212
F11.77
sVhumidity
p1213
F0.7
sVvisibility
p1214
I10
sVsummary
p1215
VMostly Cloudy
p1216
sVapparentTemperature
p1217
F6.04
sVpressure
p1218
F1023.97
sVwindSpeed
p1219
F15.46
sVcloudCover
p1220
F0.84
sVtime
p1221
I1416276000
sVwindBearing
p1222
I276
sVprecipIntensity
p1223
I0
sVprecipProbability
p1224
I0
ssg30
Nsg31
g32
(S'\x07\xde\x0b\x11\x14\x00\x00\x00\x00\x00'
p1225
tp1226
Rp1227
sba.