(lp0
ccopy_reg
_reconstructor
p1
(cforecastio.models
ForecastioDataPoint
p2
c__builtin__
object
p3
Ntp4
Rp5
(dp6
S'utime'
p7
I1416103860
sS'sunriseTime'
p8
NsS'd'
p9
(dp10
VprecipIntensity
p11
I0
sVprecipProbability
p12
I0
sVtime
p13
I1416103860
ssS'sunsetTime'
p14
NsS'time'
p15
cdatetime
datetime
p16
(S'\x07\xde\x0b\x0f\x14\x0b\x00\x00\x00\x00'
p17
tp18
Rp19
sbag1
(g2
g3
Ntp20
Rp21
(dp22
g7
I1416103920
sg8
Nsg9
(dp23
VprecipIntensity
p24
I0
sVprecipProbability
p25
I0
sVtime
p26
I1416103920
ssg14
Nsg15
g16
(S'\x07\xde\x0b\x0f\x14\x0c\x00\x00\x00\x00'
p27
tp28
Rp29
sbag1
(g2
g3
Ntp30
Rp31
(dp32
g7
I1416103980
sg8
Nsg9
(dp33
VprecipIntensity
p34
I0
sVprecipProbability
p35
I0
sVtime
p36
I1416103980
ssg14
Nsg15
g16
(S'\x07\xde\x0b\x0f\x14\r\x00\x00\x00\x00'
p37
tp38
Rp39
sbag1
(g2
g3
Ntp40
Rp41
(dp42
g7
I1416104040
sg8
Nsg9
(dp43
VprecipIntensity
p44
I0
sVprecipProbability
p45
I0
sVtime
p46
I1416104040
ssg14
Nsg15
g16
(S'\x07\xde\x0b\x0f\x14\x0e\x00\x00\x00\x00'
p47
tp48
Rp49
sbag1
(g2
g3
Ntp50
Rp51
(dp52
g7
I1416104100
sg8
Nsg9
(dp53
VprecipIntensity
p54
I0
sVprecipProbability
p55
I0
sVtime
p56
I1416104100
ssg14
Nsg15
g16
(S'\x07\xde\x0b\x0f\x14\x0f\x00\x00\x00\x00'
p57
tp58
Rp59
sbag1
(g2
g3
Ntp60
Rp61
(dp62
g7
I1416104160
sg8
Nsg9
(dp63
VprecipIntensity
p64
I0
sVprecipProbability
p65
I0
sVtime
p66
I1416104160
ssg14
Nsg15
g16
(S'\x07\xde\x0b\x0f\x14\x10\x00\x00\x00\x00'
p67
tp68
Rp69
sbag1
(g2
g3
Ntp70
Rp71
(dp72
g7
I1416104220
sg8
Nsg9
(dp73
VprecipIntensity
p74
I0
sVprecipProbability
p75
I0
sVtime
p76
I1416104220
ssg14
Nsg15
g16
(S'\x07\xde\x0b\x0f\x14\x11\x00\x00\x00\x00'
p77
tp78
Rp79
sbag1
(g2
g3
Ntp80
Rp81
(dp82
g7
I1416104280
sg8
Nsg9
(dp83
VprecipIntensity
p84
I0
sVprecipProbability
p85
I0
sVtime
p86
I1416104280
ssg14
Nsg15
g16
(S'\x07\xde\x0b\x0f\x14\x12\x00\x00\x00\x00'
p87
tp88
Rp89
sbag1
(g2
g3
Ntp90
Rp91
(dp92
g7
I1416104340
sg8
Nsg9
(dp93
VprecipIntensity
p94
I0
sVprecipProbability
p95
I0
sVtime
p96
I1416104340
ssg14
Nsg15
g16
(S'\x07\xde\x0b\x0f\x14\x13\x00\x00\x00\x00'
p97
tp98
Rp99
sbag1
(g2
g3
Ntp100
Rp101
(dp102
g7
I1416104400
sg8
Nsg9
(dp103
VprecipIntensity
p104
I0
sVprecipProbability
p105
I0
sVtime
p106
I1416104400
ssg14
Nsg15
g16
(S'\x07\xde\x0b\x0f\x14\x14\x00\x00\x00\x00'
p107
tp108
Rp109
sbag1
(g2
g3
Ntp110
Rp111
(dp112
g7
I1416104460
sg8
Nsg9
(dp113
VprecipIntensity
p114
I0
sVprecipProbability
p115
I0
sVtime
p116
I1416104460
ssg14
Nsg15
g16
(S'\x07\xde\x0b\x0f\x14\x15\x00\x00\x00\x00'
p117
tp118
Rp119
sbag1
(g2
g3
Ntp120
Rp121
(dp122
g7
I1416104520
sg8
Nsg9
(dp123
VprecipIntensity
p124
I0
sVprecipProbability
p125
I0
sVtime
p126
I1416104520
ssg14
Nsg15
g16
(S'\x07\xde\x0b\x0f\x14\x16\x00\x00\x00\x00'
p127
tp128
Rp129
sbag1
(g2
g3
Ntp130
Rp131
(dp132
g7
I1416104580
sg8
Nsg9
(dp133
VprecipIntensity
p134
I0
sVprecipProbability
p135
I0
sVtime
p136
I1416104580
ssg14
Nsg15
g16
(S'\x07\xde\x0b\x0f\x14\x17\x00\x00\x00\x00'
p137
tp138
Rp139
sbag1
(g2
g3
Ntp140
Rp141
(dp142
g7
I1416104640
sg8
Nsg9
(dp143
VprecipIntensity
p144
I0
sVprecipProbability
p145
I0
sVtime
p146
I1416104640
ssg14
Nsg15
g16
(S'\x07\xde\x0b\x0f\x14\x18\x00\x00\x00\x00'
p147
tp148
Rp149
sbag1
(g2
g3
Ntp150
Rp151
(dp152
g7
I1416104700
sg8
Nsg9
(dp153
VprecipIntensity
p154
I0
sVprecipProbability
p155
I0
sVtime
p156
I1416104700
ssg14
Nsg15
g16
(S'\x07\xde\x0b\x0f\x14\x19\x00\x00\x00\x00'
p157
tp158
Rp159
sbag1
(g2
g3
Ntp160
Rp161
(dp162
g7
I1416104760
sg8
Nsg9
(dp163
VprecipIntensity
p164
I0
sVprecipProbability
p165
I0
sVtime
p166
I1416104760
ssg14
Nsg15
g16
(S'\x07\xde\x0b\x0f\x14\x1a\x00\x00\x00\x00'
p167
tp168
Rp169
sbag1
(g2
g3
Ntp170
Rp171
(dp172
g7
I1416104820
sg8
Nsg9
(dp173
VprecipIntensity
p174
I0
sVprecipProbability
p175
I0
sVtime
p176
I1416104820
ssg14
Nsg15
g16
(S'\x07\xde\x0b\x0f\x14\x1b\x00\x00\x00\x00'
p177
tp178
Rp179
sbag1
(g2
g3
Ntp180
Rp181
(dp182
g7
I1416104880
sg8
Nsg9
(dp183
VprecipIntensity
p184
I0
sVprecipProbability
p185
I0
sVtime
p186
I1416104880
ssg14
Nsg15
g16
(S'\x07\xde\x0b\x0f\x14\x1c\x00\x00\x00\x00'
p187
tp188
Rp189
sbag1
(g2
g3
Ntp190
Rp191
(dp192
g7
I1416104940
sg8
Nsg9
(dp193
VprecipIntensity
p194
I0
sVprecipProbability
p195
I0
sVtime
p196
I1416104940
ssg14
Nsg15
g16
(S'\x07\xde\x0b\x0f\x14\x1d\x00\x00\x00\x00'
p197
tp198
Rp199
sbag1
(g2
g3
Ntp200
Rp201
(dp202
g7
I1416105000
sg8
Nsg9
(dp203
VprecipIntensity
p204
I0
sVprecipProbability
p205
I0
sVtime
p206
I1416105000
ssg14
Nsg15
g16
(S'\x07\xde\x0b\x0f\x14\x1e\x00\x00\x00\x00'
p207
tp208
Rp209
sbag1
(g2
g3
Ntp210
Rp211
(dp212
g7
I1416105060
sg8
Nsg9
(dp213
VprecipIntensity
p214
I0
sVprecipProbability
p215
I0
sVtime
p216
I1416105060
ssg14
Nsg15
g16
(S'\x07\xde\x0b\x0f\x14\x1f\x00\x00\x00\x00'
p217
tp218
Rp219
sbag1
(g2
g3
Ntp220
Rp221
(dp222
g7
I1416105120
sg8
Nsg9
(dp223
VprecipIntensity
p224
I0
sVprecipProbability
p225
I0
sVtime
p226
I1416105120
ssg14
Nsg15
g16
(S'\x07\xde\x0b\x0f\x14 \x00\x00\x00\x00'
p227
tp228
Rp229
sbag1
(g2
g3
Ntp230
Rp231
(dp232
g7
I1416105180
sg8
Nsg9
(dp233
VprecipIntensity
p234
I0
sVprecipProbability
p235
I0
sVtime
p236
I1416105180
ssg14
Nsg15
g16
(S'\x07\xde\x0b\x0f\x14!\x00\x00\x00\x00'
p237
tp238
Rp239
sbag1
(g2
g3
Ntp240
Rp241
(dp242
g7
I1416105240
sg8
Nsg9
(dp243
VprecipIntensity
p244
I0
sVprecipProbability
p245
I0
sVtime
p246
I1416105240
ssg14
Nsg15
g16
(S'\x07\xde\x0b\x0f\x14"\x00\x00\x00\x00'
p247
tp248
Rp249
sbag1
(g2
g3
Ntp250
Rp251
(dp252
g7
I1416105300
sg8
Nsg9
(dp253
VprecipIntensity
p254
I0
sVprecipProbability
p255
I0
sVtime
p256
I1416105300
ssg14
Nsg15
g16
(S'\x07\xde\x0b\x0f\x14#\x00\x00\x00\x00'
p257
tp258
Rp259
sbag1
(g2
g3
Ntp260
Rp261
(dp262
g7
I1416105360
sg8
Nsg9
(dp263
VprecipIntensity
p264
I0
sVprecipProbability
p265
I0
sVtime
p266
I1416105360
ssg14
Nsg15
g16
(S'\x07\xde\x0b\x0f\x14$\x00\x00\x00\x00'
p267
tp268
Rp269
sbag1
(g2
g3
Ntp270
Rp271
(dp272
g7
I1416105420
sg8
Nsg9
(dp273
VprecipIntensity
p274
I0
sVprecipProbability
p275
I0
sVtime
p276
I1416105420
ssg14
Nsg15
g16
(S'\x07\xde\x0b\x0f\x14%\x00\x00\x00\x00'
p277
tp278
Rp279
sbag1
(g2
g3
Ntp280
Rp281
(dp282
g7
I1416105480
sg8
Nsg9
(dp283
VprecipIntensity
p284
I0
sVprecipProbability
p285
I0
sVtime
p286
I1416105480
ssg14
Nsg15
g16
(S'\x07\xde\x0b\x0f\x14&\x00\x00\x00\x00'
p287
tp288
Rp289
sbag1
(g2
g3
Ntp290
Rp291
(dp292
g7
I1416105540
sg8
Nsg9
(dp293
VprecipIntensity
p294
I0
sVprecipProbability
p295
I0
sVtime
p296
I1416105540
ssg14
Nsg15
g16
(S"\x07\xde\x0b\x0f\x14'\x00\x00\x00\x00"
p297
tp298
Rp299
sbag1
(g2
g3
Ntp300
Rp301
(dp302
g7
I1416105600
sg8
Nsg9
(dp303
VprecipIntensity
p304
I0
sVprecipProbability
p305
I0
sVtime
p306
I1416105600
ssg14
Nsg15
g16
(S'\x07\xde\x0b\x0f\x14(\x00\x00\x00\x00'
p307
tp308
Rp309
sbag1
(g2
g3
Ntp310
Rp311
(dp312
g7
I1416105660
sg8
Nsg9
(dp313
VprecipIntensity
p314
I0
sVprecipProbability
p315
I0
sVtime
p316
I1416105660
ssg14
Nsg15
g16
(S'\x07\xde\x0b\x0f\x14)\x00\x00\x00\x00'
p317
tp318
Rp319
sbag1
(g2
g3
Ntp320
Rp321
(dp322
g7
I1416105720
sg8
Nsg9
(dp323
VprecipIntensity
p324
I0
sVprecipProbability
p325
I0
sVtime
p326
I1416105720
ssg14
Nsg15
g16
(S'\x07\xde\x0b\x0f\x14*\x00\x00\x00\x00'
p327
tp328
Rp329
sbag1
(g2
g3
Ntp330
Rp331
(dp332
g7
I1416105780
sg8
Nsg9
(dp333
VprecipIntensity
p334
I0
sVprecipProbability
p335
I0
sVtime
p336
I1416105780
ssg14
Nsg15
g16
(S'\x07\xde\x0b\x0f\x14+\x00\x00\x00\x00'
p337
tp338
Rp339
sbag1
(g2
g3
Ntp340
Rp341
(dp342
g7
I1416105840
sg8
Nsg9
(dp343
VprecipIntensity
p344
I0
sVprecipProbability
p345
I0
sVtime
p346
I1416105840
ssg14
Nsg15
g16
(S'\x07\xde\x0b\x0f\x14,\x00\x00\x00\x00'
p347
tp348
Rp349
sbag1
(g2
g3
Ntp350
Rp351
(dp352
g7
I1416105900
sg8
Nsg9
(dp353
VprecipIntensity
p354
I0
sVprecipProbability
p355
I0
sVtime
p356
I1416105900
ssg14
Nsg15
g16
(S'\x07\xde\x0b\x0f\x14-\x00\x00\x00\x00'
p357
tp358
Rp359
sbag1
(g2
g3
Ntp360
Rp361
(dp362
g7
I1416105960
sg8
Nsg9
(dp363
VprecipIntensity
p364
I0
sVprecipProbability
p365
I0
sVtime
p366
I1416105960
ssg14
Nsg15
g16
(S'\x07\xde\x0b\x0f\x14.\x00\x00\x00\x00'
p367
tp368
Rp369
sbag1
(g2
g3
Ntp370
Rp371
(dp372
g7
I1416106020
sg8
Nsg9
(dp373
VprecipIntensity
p374
I0
sVprecipProbability
p375
I0
sVtime
p376
I1416106020
ssg14
Nsg15
g16
(S'\x07\xde\x0b\x0f\x14/\x00\x00\x00\x00'
p377
tp378
Rp379
sbag1
(g2
g3
Ntp380
Rp381
(dp382
g7
I1416106080
sg8
Nsg9
(dp383
VprecipIntensity
p384
I0
sVprecipProbability
p385
I0
sVtime
p386
I1416106080
ssg14
Nsg15
g16
(S'\x07\xde\x0b\x0f\x140\x00\x00\x00\x00'
p387
tp388
Rp389
sbag1
(g2
g3
Ntp390
Rp391
(dp392
g7
I1416106140
sg8
Nsg9
(dp393
VprecipIntensity
p394
I0
sVprecipProbability
p395
I0
sVtime
p396
I1416106140
ssg14
Nsg15
g16
(S'\x07\xde\x0b\x0f\x141\x00\x00\x00\x00'
p397
tp398
Rp399
sbag1
(g2
g3
Ntp400
Rp401
(dp402
g7
I1416106200
sg8
Nsg9
(dp403
VprecipIntensity
p404
I0
sVprecipProbability
p405
I0
sVtime
p406
I1416106200
ssg14
Nsg15
g16
(S'\x07\xde\x0b\x0f\x142\x00\x00\x00\x00'
p407
tp408
Rp409
sbag1
(g2
g3
Ntp410
Rp411
(dp412
g7
I1416106260
sg8
Nsg9
(dp413
VprecipIntensity
p414
I0
sVprecipProbability
p415
I0
sVtime
p416
I1416106260
ssg14
Nsg15
g16
(S'\x07\xde\x0b\x0f\x143\x00\x00\x00\x00'
p417
tp418
Rp419
sbag1
(g2
g3
Ntp420
Rp421
(dp422
g7
I1416106320
sg8
Nsg9
(dp423
VprecipIntensity
p424
I0
sVprecipProbability
p425
I0
sVtime
p426
I1416106320
ssg14
Nsg15
g16
(S'\x07\xde\x0b\x0f\x144\x00\x00\x00\x00'
p427
tp428
Rp429
sbag1
(g2
g3
Ntp430
Rp431
(dp432
g7
I1416106380
sg8
Nsg9
(dp433
VprecipIntensity
p434
I0
sVprecipProbability
p435
I0
sVtime
p436
I1416106380
ssg14
Nsg15
g16
(S'\x07\xde\x0b\x0f\x145\x00\x00\x00\x00'
p437
tp438
Rp439
sbag1
(g2
g3
Ntp440
Rp441
(dp442
g7
I1416106440
sg8
Nsg9
(dp443
VprecipIntensity
p444
I0
sVprecipProbability
p445
I0
sVtime
p446
I1416106440
ssg14
Nsg15
g16
(S'\x07\xde\x0b\x0f\x146\x00\x00\x00\x00'
p447
tp448
Rp449
sbag1
(g2
g3
Ntp450
Rp451
(dp452
g7
I1416106500
sg8
Nsg9
(dp453
VprecipIntensity
p454
I0
sVprecipProbability
p455
I0
sVtime
p456
I1416106500
ssg14
Nsg15
g16
(S'\x07\xde\x0b\x0f\x147\x00\x00\x00\x00'
p457
tp458
Rp459
sbag1
(g2
g3
Ntp460
Rp461
(dp462
g7
I1416106560
sg8
Nsg9
(dp463
VprecipIntensity
p464
I0
sVprecipProbability
p465
I0
sVtime
p466
I1416106560
ssg14
Nsg15
g16
(S'\x07\xde\x0b\x0f\x148\x00\x00\x00\x00'
p467
tp468
Rp469
sbag1
(g2
g3
Ntp470
Rp471
(dp472
g7
I1416106620
sg8
Nsg9
(dp473
VprecipIntensity
p474
I0
sVprecipProbability
p475
I0
sVtime
p476
I1416106620
ssg14
Nsg15
g16
(S'\x07\xde\x0b\x0f\x149\x00\x00\x00\x00'
p477
tp478
Rp479
sbag1
(g2
g3
Ntp480
Rp481
(dp482
g7
I1416106680
sg8
Nsg9
(dp483
VprecipIntensity
p484
I0
sVprecipProbability
p485
I0
sVtime
p486
I1416106680
ssg14
Nsg15
g16
(S'\x07\xde\x0b\x0f\x14:\x00\x00\x00\x00'
p487
tp488
Rp489
sbag1
(g2
g3
Ntp490
Rp491
(dp492
g7
I1416106740
sg8
Nsg9
(dp493
VprecipIntensity
p494
I0
sVprecipProbability
p495
I0
sVtime
p496
I1416106740
ssg14
Nsg15
g16
(S'\x07\xde\x0b\x0f\x14;\x00\x00\x00\x00'
p497
tp498
Rp499
sbag1
(g2
g3
Ntp500
Rp501
(dp502
g7
I1416106800
sg8
Nsg9
(dp503
VprecipIntensity
p504
I0
sVprecipProbability
p505
I0
sVtime
p506
I1416106800
ssg14
Nsg15
g16
(S'\x07\xde\x0b\x0f\x15\x00\x00\x00\x00\x00'
p507
tp508
Rp509
sbag1
(g2
g3
Ntp510
Rp511
(dp512
g7
I1416106860
sg8
Nsg9
(dp513
VprecipIntensity
p514
I0
sVprecipProbability
p515
I0
sVtime
p516
I1416106860
ssg14
Nsg15
g16
(S'\x07\xde\x0b\x0f\x15\x01\x00\x00\x00\x00'
p517
tp518
Rp519
sbag1
(g2
g3
Ntp520
Rp521
(dp522
g7
I1416106920
sg8
Nsg9
(dp523
VprecipIntensity
p524
I0
sVprecipProbability
p525
I0
sVtime
p526
I1416106920
ssg14
Nsg15
g16
(S'\x07\xde\x0b\x0f\x15\x02\x00\x00\x00\x00'
p527
tp528
Rp529
sbag1
(g2
g3
Ntp530
Rp531
(dp532
g7
I1416106980
sg8
Nsg9
(dp533
VprecipIntensity
p534
I0
sVprecipProbability
p535
I0
sVtime
p536
I1416106980
ssg14
Nsg15
g16
(S'\x07\xde\x0b\x0f\x15\x03\x00\x00\x00\x00'
p537
tp538
Rp539
sbag1
(g2
g3
Ntp540
Rp541
(dp542
g7
I1416107040
sg8
Nsg9
(dp543
VprecipIntensity
p544
I0
sVprecipProbability
p545
I0
sVtime
p546
I1416107040
ssg14
Nsg15
g16
(S'\x07\xde\x0b\x0f\x15\x04\x00\x00\x00\x00'
p547
tp548
Rp549
sbag1
(g2
g3
Ntp550
Rp551
(dp552
g7
I1416107100
sg8
Nsg9
(dp553
VprecipIntensity
p554
I0
sVprecipProbability
p555
I0
sVtime
p556
I1416107100
ssg14
Nsg15
g16
(S'\x07\xde\x0b\x0f\x15\x05\x00\x00\x00\x00'
p557
tp558
Rp559
sbag1
(g2
g3
Ntp560
Rp561
(dp562
g7
I1416107160
sg8
Nsg9
(dp563
VprecipIntensity
p564
I0
sVprecipProbability
p565
I0
sVtime
p566
I1416107160
ssg14
Nsg15
g16
(S'\x07\xde\x0b\x0f\x15\x06\x00\x00\x00\x00'
p567
tp568
Rp569
sbag1
(g2
g3
Ntp570
Rp571
(dp572
g7
I1416107220
sg8
Nsg9
(dp573
VprecipIntensity
p574
I0
sVprecipProbability
p575
I0
sVtime
p576
I1416107220
ssg14
Nsg15
g16
(S'\x07\xde\x0b\x0f\x15\x07\x00\x00\x00\x00'
p577
tp578
Rp579
sbag1
(g2
g3
Ntp580
Rp581
(dp582
g7
I1416107280
sg8
Nsg9
(dp583
VprecipIntensity
p584
I0
sVprecipProbability
p585
I0
sVtime
p586
I1416107280
ssg14
Nsg15
g16
(S'\x07\xde\x0b\x0f\x15\x08\x00\x00\x00\x00'
p587
tp588
Rp589
sbag1
(g2
g3
Ntp590
Rp591
(dp592
g7
I1416107340
sg8
Nsg9
(dp593
VprecipIntensity
p594
I0
sVprecipProbability
p595
I0
sVtime
p596
I1416107340
ssg14
Nsg15
g16
(S'\x07\xde\x0b\x0f\x15\t\x00\x00\x00\x00'
p597
tp598
Rp599
sbag1
(g2
g3
Ntp600
Rp601
(dp602
g7
I1416107400
sg8
Nsg9
(dp603
VprecipIntensity
p604
I0
sVprecipProbability
p605
I0
sVtime
p606
I1416107400
ssg14
Nsg15
g16
(S'\x07\xde\x0b\x0f\x15\n\x00\x00\x00\x00'
p607
tp608
Rp609
sbag1
(g2
g3
Ntp610
Rp611
(dp612
g7
I1416107460
sg8
Nsg9
(dp613
VprecipIntensityError
p614
F0.0011
sVprecipIntensity
p615
F0.0026
sVprecipType
p616
Vsnow
p617
sVprecipProbability
p618
F0.01
sVtime
p619
I1416107460
ssg14
Nsg15
g16
(S'\x07\xde\x0b\x0f\x15\x0b\x00\x00\x00\x00'
p620
tp621
Rp622
sba.